; Function Attrs: mustprogress uwtable
define dso_local noundef zeroext i1 @_ZNK3tev14PfmImageLoader11canLoadFileERNSt3__113basic_istreamIcNS1_11char_traitsIcEEEE(ptr nocapture nonnull readnone align 8 %0, ptr noundef nonnull align 8 dereferenceable(16) %1) unnamed_addr #3 align 2 {
  %3 = alloca [2 x i8], align 1
  %4 = call noundef nonnull align 8 dereferenceable(16) ptr @_ZNSt3__113basic_istreamIcNS_11char_traitsIcEEE4readEPcl(ptr noundef nonnull align 8 dereferenceable(16) %1, ptr noundef nonnull %3, i64 noundef 2)
  %5 = load ptr, ptr %1, align 8
  %6 = getelementptr i8, ptr %5, i64 -24
  %7 = load i64, ptr %6, align 8
  %8 = getelementptr inbounds i8, ptr %1, i64 %7
  %9 = getelementptr inbounds i8, ptr %8, i64 32
  %10 = load i32, ptr %9, align 8
  %11 = and i32 %10, 5
  %.not = icmp eq i32 %11, 0
  br i1 %.not, label %12, label %23

12:                                               ; preds = %2
  %13 = getelementptr inbounds i8, ptr %1, i64 8
  %14 = load i64, ptr %13, align 8
  %15 = icmp eq i64 %14, 2
  %16 = load i8, ptr %3, align 1
  %17 = icmp eq i8 %16, 80
  %or.cond = select i1 %15, i1 %17, i1 false
  br i1 %or.cond, label %18, label %23

18:                                               ; preds = %12
  %19 = getelementptr inbounds i8, ptr %3, i64 1
  %20 = load i8, ptr %19, align 1
  %21 = and i8 %20, -33
  %22 = icmp eq i8 %21, 70
  br label %23

23:                                               ; preds = %18, %12, %2
  %24 = phi i1 [ false, %12 ], [ false, %2 ], [ %22, %18 ]
  call void @_ZNSt3__18ios_base5clearEj(ptr noundef nonnull align 8 dereferenceable(136) %8, i32 noundef 0)
  %25 = call noundef nonnull align 8 dereferenceable(16) ptr @_ZNSt3__113basic_istreamIcNS_11char_traitsIcEEE5seekgENS_4fposI11__mbstate_tEE(ptr noundef nonnull align 8 dereferenceable(16) %1, i64 0, i64 0)
  ret i1 %24
}